target datalayout = "e-m:e-p270:32:32-p271:32:32-p272:64:64-i64:64-i128:128-f80:128-n8:16:32:64-S128"
target triple = "x86_64-pc-linux-gnu"

; Function Attrs: null_pointer_is_valid sspstrong uwtable
define i32 @oid_subid2encoded(ptr noundef %0, i32 noundef %1, ptr noundef %2, ptr noundef %3) #0 {
  %5 = alloca i32, align 4
  %6 = alloca ptr, align 8
  %7 = alloca i32, align 4
  %8 = alloca ptr, align 8
  %9 = alloca ptr, align 8
  %10 = alloca i32, align 4
  %11 = alloca i32, align 4
  %12 = alloca i32, align 4
  %13 = alloca ptr, align 8
  %14 = alloca i32, align 4
  %15 = alloca i32, align 4
  store ptr %0, ptr %6, align 8
  store i32 %1, ptr %7, align 4
  store ptr %2, ptr %8, align 8
  store ptr %3, ptr %9, align 8
  call void @llvm.lifetime.start.p0(i64 4, ptr %10) #6
  store i32 0, ptr %10, align 4
  call void @llvm.lifetime.start.p0(i64 4, ptr %11) #6
  call void @llvm.lifetime.start.p0(i64 4, ptr %12) #6
  call void @llvm.lifetime.start.p0(i64 8, ptr %13) #6
  %16 = load ptr, ptr %8, align 8
  %17 = icmp ne ptr %16, null
  br i1 %17, label %18, label %21

18:                                               ; preds = %4
  %19 = load i32, ptr %7, align 4
  %20 = icmp ule i32 %19, 1
  br i1 %20, label %21, label %23

21:                                               ; preds = %18, %4
  %22 = load ptr, ptr %9, align 8
  store ptr null, ptr %22, align 8
  store i32 0, ptr %5, align 4
  store i32 1, ptr %14, align 4
  br label %165

23:                                               ; preds = %18
  %24 = load ptr, ptr %8, align 8
  %25 = getelementptr i32, ptr %24, i64 0
  %26 = load i32, ptr %25, align 4
  %27 = mul i32 %26, 40
  store i32 %27, ptr %12, align 4
  store i32 1, ptr %11, align 4
  br label %28

28:                                               ; preds = %70, %23
  %29 = load i32, ptr %11, align 4
  %30 = load i32, ptr %7, align 4
  %31 = icmp ult i32 %29, %30
  br i1 %31, label %32, label %73

32:                                               ; preds = %28
  %33 = load ptr, ptr %8, align 8
  %34 = load i32, ptr %11, align 4
  %35 = zext i32 %34 to i64
  %36 = getelementptr i32, ptr %33, i64 %35
  %37 = load i32, ptr %36, align 4
  %38 = load i32, ptr %12, align 4
  %39 = add i32 %38, %37
  store i32 %39, ptr %12, align 4
  %40 = load i32, ptr %12, align 4
  %41 = icmp ule i32 %40, 127
  br i1 %41, label %42, label %45

42:                                               ; preds = %32
  %43 = load i32, ptr %10, align 4
  %44 = add i32 %43, 1
  store i32 %44, ptr %10, align 4
  br label %69

45:                                               ; preds = %32
  %46 = load i32, ptr %12, align 4
  %47 = icmp ule i32 %46, 16383
  br i1 %47, label %48, label %51

48:                                               ; preds = %45
  %49 = load i32, ptr %10, align 4
  %50 = add i32 %49, 2
  store i32 %50, ptr %10, align 4
  br label %68

51:                                               ; preds = %45
  %52 = load i32, ptr %12, align 4
  %53 = icmp ule i32 %52, 2097151
  br i1 %53, label %54, label %57

54:                                               ; preds = %51
  %55 = load i32, ptr %10, align 4
  %56 = add i32 %55, 3
  store i32 %56, ptr %10, align 4
  br label %67

57:                                               ; preds = %51
  %58 = load i32, ptr %12, align 4
  %59 = icmp ule i32 %58, 268435455
  br i1 %59, label %60, label %63

60:                                               ; preds = %57
  %61 = load i32, ptr %10, align 4
  %62 = add i32 %61, 4
  store i32 %62, ptr %10, align 4
  br label %66

63:                                               ; preds = %57
  %64 = load i32, ptr %10, align 4
  %65 = add i32 %64, 5
  store i32 %65, ptr %10, align 4
  br label %66

66:                                               ; preds = %63, %60
  br label %67

67:                                               ; preds = %66, %54
  br label %68

68:                                               ; preds = %67, %48
  br label %69

69:                                               ; preds = %68, %42
  br label %70

70:                                               ; preds = %69
  %71 = load i32, ptr %11, align 4
  %72 = add i32 %71, 1
  store i32 %72, ptr %11, align 4
  store i32 0, ptr %12, align 4
  br label %28, !llvm.loop !17

73:                                               ; preds = %28
  %74 = load ptr, ptr %6, align 8
  %75 = load i32, ptr %10, align 4
  %76 = zext i32 %75 to i64
  %77 = call noalias ptr @wmem_alloc(ptr noundef %74, i64 noundef %76) #7
  store ptr %77, ptr %13, align 8
  %78 = load ptr, ptr %9, align 8
  store ptr %77, ptr %78, align 8
  %79 = load ptr, ptr %8, align 8
  %80 = getelementptr i32, ptr %79, i64 0
  %81 = load i32, ptr %80, align 4
  %82 = mul i32 %81, 40
  store i32 %82, ptr %12, align 4
  store i32 1, ptr %11, align 4
  br label %83

83:                                               ; preds = %160, %73
  %84 = load i32, ptr %11, align 4
  %85 = load i32, ptr %7, align 4
  %86 = icmp ult i32 %84, %85
  br i1 %86, label %87, label %163

87:                                               ; preds = %83
  call void @llvm.lifetime.start.p0(i64 4, ptr %15) #6
  %88 = load ptr, ptr %8, align 8
  %89 = load i32, ptr %11, align 4
  %90 = zext i32 %89 to i64
  %91 = getelementptr i32, ptr %88, i64 %90
  %92 = load i32, ptr %91, align 4
  %93 = load i32, ptr %12, align 4
  %94 = add i32 %93, %92
  store i32 %94, ptr %12, align 4
  %95 = load i32, ptr %12, align 4
  %96 = icmp ule i32 %95, 127
  br i1 %96, label %97, label %98

97:                                               ; preds = %87
  store i32 1, ptr %15, align 4
  br label %114

98:                                               ; preds = %87
  %99 = load i32, ptr %12, align 4
  %100 = icmp ule i32 %99, 16383
  br i1 %100, label %101, label %102

101:                                              ; preds = %98
  store i32 2, ptr %15, align 4
  br label %113

102:                                              ; preds = %98
  %103 = load i32, ptr %12, align 4
  %104 = icmp ule i32 %103, 2097151
  br i1 %104, label %105, label %106

105:                                              ; preds = %102
  store i32 3, ptr %15, align 4
  br label %112

106:                                              ; preds = %102
  %107 = load i32, ptr %12, align 4
  %108 = icmp ule i32 %107, 268435455
  br i1 %108, label %109, label %110

109:                                              ; preds = %106
  store i32 4, ptr %15, align 4
  br label %111

110:                                              ; preds = %106
  store i32 5, ptr %15, align 4
  br label %111

111:                                              ; preds = %110, %109
  br label %112

112:                                              ; preds = %111, %105
  br label %113

113:                                              ; preds = %112, %101
  br label %114

114:                                              ; preds = %113, %97
  %115 = load i32, ptr %15, align 4
  switch i32 %115, label %116 [
    i32 5, label %118
    i32 4, label %126
    i32 3, label %134
    i32 2, label %142
    i32 1, label %150
  ]

116:                                              ; preds = %114
  %117 = load ptr, ptr %9, align 8
  store ptr null, ptr %117, align 8
  store i32 0, ptr %5, align 4
  store i32 1, ptr %14, align 4
  br label %157

118:                                              ; preds = %114
  %119 = load i32, ptr %12, align 4
  %120 = and i32 %119, -268435456
  %121 = lshr i32 %120, 28
  %122 = or i32 %121, 128
  %123 = trunc i32 %122 to i8
  %124 = load ptr, ptr %13, align 8
  %125 = getelementptr i8, ptr %124, i32 1
  store ptr %125, ptr %13, align 8
  store i8 %123, ptr %124, align 1
  br label %126

126:                                              ; preds = %114, %118
  %127 = load i32, ptr %12, align 4
  %128 = and i32 %127, 266338304
  %129 = lshr i32 %128, 21
  %130 = or i32 %129, 128
  %131 = trunc i32 %130 to i8
  %132 = load ptr, ptr %13, align 8
  %133 = getelementptr i8, ptr %132, i32 1
  store ptr %133, ptr %13, align 8
  store i8 %131, ptr %132, align 1
  br label %134

134:                                              ; preds = %114, %126
  %135 = load i32, ptr %12, align 4
  %136 = and i32 %135, 2080768
  %137 = lshr i32 %136, 14
  %138 = or i32 %137, 128
  %139 = trunc i32 %138 to i8
  %140 = load ptr, ptr %13, align 8
  %141 = getelementptr i8, ptr %140, i32 1
  store ptr %141, ptr %13, align 8
  store i8 %139, ptr %140, align 1
  br label %142

142:                                              ; preds = %114, %134
  %143 = load i32, ptr %12, align 4
  %144 = and i32 %143, 16256
  %145 = lshr i32 %144, 7
  %146 = or i32 %145, 128
  %147 = trunc i32 %146 to i8
  %148 = load ptr, ptr %13, align 8
  %149 = getelementptr i8, ptr %148, i32 1
  store ptr %149, ptr %13, align 8
  store i8 %147, ptr %148, align 1
  br label %150

150:                                              ; preds = %114, %142
  %151 = load i32, ptr %12, align 4
  %152 = and i32 %151, 127
  %153 = trunc i32 %152 to i8
  %154 = load ptr, ptr %13, align 8
  %155 = getelementptr i8, ptr %154, i32 1
  store ptr %155, ptr %13, align 8
  store i8 %153, ptr %154, align 1
  br label %156

156:                                              ; preds = %150
  store i32 0, ptr %14, align 4
  br label %157

157:                                              ; preds = %156, %116
  call void @llvm.lifetime.end.p0(i64 4, ptr %15) #6
  %158 = load i32, ptr %14, align 4
  switch i32 %158, label %165 [
    i32 0, label %159
  ]

159:                                              ; preds = %157
  br label %160

160:                                              ; preds = %159
  %161 = load i32, ptr %11, align 4
  %162 = add i32 %161, 1
  store i32 %162, ptr %11, align 4
  store i32 0, ptr %12, align 4
  br label %83, !llvm.loop !18

163:                                              ; preds = %83
  %164 = load i32, ptr %10, align 4
  store i32 %164, ptr %5, align 4
  store i32 1, ptr %14, align 4
  br label %165

165:                                              ; preds = %163, %157, %21
  call void @llvm.lifetime.end.p0(i64 8, ptr %13) #6
  call void @llvm.lifetime.end.p0(i64 4, ptr %12) #6
  call void @llvm.lifetime.end.p0(i64 4, ptr %11) #6
  call void @llvm.lifetime.end.p0(i64 4, ptr %10) #6
  %166 = load i32, ptr %5, align 4
  ret i32 %166
}