; Function Attrs: null_pointer_is_valid sspstrong uwtable
define i32 @oid_subid2encoded(ptr noundef %0, i32 noundef %1, ptr noundef readonly captures(address_is_null) %2, ptr noundef writeonly captures(none) %3) local_unnamed_addr #0 {
  %5 = icmp eq ptr %2, null
  %6 = icmp ult i32 %1, 2
  %or.cond = or i1 %6, %5
  br i1 %or.cond, label %7, label %8

7:                                                ; preds = %4
  store ptr null, ptr %3, align 8
  br label %.loopexit

8:                                                ; preds = %4
  %9 = load i32, ptr %2, align 4
  %10 = mul i32 %9, 40
  %wide.trip.count = zext i32 %1 to i64
  br label %11

11:                                               ; preds = %8, %22
  %indvars.iv = phi i64 [ 1, %8 ], [ %indvars.iv.next, %22 ]
  %.05072 = phi i32 [ %10, %8 ], [ 0, %22 ]
  %.05470 = phi i32 [ 0, %8 ], [ %23, %22 ]
  %12 = getelementptr i32, ptr %2, i64 %indvars.iv
  %13 = load i32, ptr %12, align 4
  %14 = add i32 %13, %.05072
  %15 = icmp ult i32 %14, 128
  br i1 %15, label %22, label %16

16:                                               ; preds = %11
  %17 = icmp ult i32 %14, 16384
  br i1 %17, label %22, label %18

18:                                               ; preds = %16
  %19 = icmp ult i32 %14, 2097152
  br i1 %19, label %22, label %20

20:                                               ; preds = %18
  %21 = icmp ult i32 %14, 268435456
  %. = select i1 %21, i32 4, i32 5
  br label %22

22:                                               ; preds = %20, %18, %16, %11
  %.sink = phi i32 [ 1, %11 ], [ 2, %16 ], [ 3, %18 ], [ %., %20 ]
  %23 = add i32 %.05470, %.sink
  %indvars.iv.next = add nuw nsw i64 %indvars.iv, 1
  %exitcond.not = icmp eq i64 %indvars.iv.next, %wide.trip.count
  br i1 %exitcond.not, label %24, label %11, !llvm.loop !17

24:                                               ; preds = %22
  %25 = zext i32 %23 to i64
  %26 = tail call noalias ptr @wmem_alloc(ptr noundef %0, i64 noundef %25) #8
  store ptr %26, ptr %3, align 8
  %27 = icmp ugt i32 %1, 1
  br i1 %27, label %.lr.ph.preheader, label %.loopexit

.lr.ph.preheader:                                 ; preds = %24
  %28 = load i32, ptr %2, align 4
  %29 = mul i32 %28, 40
  br label %.lr.ph

.lr.ph:                                           ; preds = %.lr.ph.preheader, %57
  %indvars.iv77 = phi i64 [ 1, %.lr.ph.preheader ], [ %indvars.iv.next78, %57 ]
  %.04975 = phi ptr [ %26, %.lr.ph.preheader ], [ %60, %57 ]
  %.15174 = phi i32 [ %29, %.lr.ph.preheader ], [ 0, %57 ]
  %30 = getelementptr i32, ptr %2, i64 %indvars.iv77
  %31 = load i32, ptr %30, align 4
  %32 = add i32 %31, %.15174
  %33 = icmp ult i32 %32, 128
  br i1 %33, label %57, label %34

34:                                               ; preds = %.lr.ph
  %35 = icmp ult i32 %32, 16384
  br i1 %35, label %.thread68, label %36

36:                                               ; preds = %34
  %37 = icmp ult i32 %32, 2097152
  br i1 %37, label %.thread66, label %38

38:                                               ; preds = %36
  %39 = icmp ult i32 %32, 268435456
  br i1 %39, label %.thread64, label %40

40:                                               ; preds = %38
  %41 = lshr i32 %32, 28
  %42 = trunc nuw nsw i32 %41 to i8
  %43 = or disjoint i8 %42, -128
  %44 = getelementptr i8, ptr %.04975, i64 1
  store i8 %43, ptr %.04975, align 1
  br label %.thread64

.thread64:                                        ; preds = %38, %40
  %.1 = phi ptr [ %44, %40 ], [ %.04975, %38 ]
  %45 = lshr i32 %32, 21
  %46 = trunc i32 %45 to i8
  %47 = or i8 %46, -128
  %48 = getelementptr i8, ptr %.1, i64 1
  store i8 %47, ptr %.1, align 1
  br label %.thread66

.thread66:                                        ; preds = %36, %.thread64
  %.2 = phi ptr [ %48, %.thread64 ], [ %.04975, %36 ]
  %49 = lshr i32 %32, 14
  %50 = trunc i32 %49 to i8
  %51 = or i8 %50, -128
  %52 = getelementptr i8, ptr %.2, i64 1
  store i8 %51, ptr %.2, align 1
  br label %.thread68

.thread68:                                        ; preds = %34, %.thread66
  %.3 = phi ptr [ %52, %.thread66 ], [ %.04975, %34 ]
  %53 = lshr i32 %32, 7
  %54 = trunc i32 %53 to i8
  %55 = or i8 %54, -128
  %56 = getelementptr i8, ptr %.3, i64 1
  store i8 %55, ptr %.3, align 1
  br label %57

57:                                               ; preds = %.lr.ph, %.thread68
  %.4 = phi ptr [ %56, %.thread68 ], [ %.04975, %.lr.ph ]
  %58 = trunc i32 %32 to i8
  %59 = and i8 %58, 127
  %60 = getelementptr i8, ptr %.4, i64 1
  store i8 %59, ptr %.4, align 1
  %indvars.iv.next78 = add nuw nsw i64 %indvars.iv77, 1
  %exitcond81.not = icmp eq i64 %indvars.iv.next78, %wide.trip.count
  br i1 %exitcond81.not, label %.loopexit, label %.lr.ph, !llvm.loop !18

.loopexit:                                        ; preds = %57, %24, %7
  %.056 = phi i32 [ 0, %7 ], [ %23, %24 ], [ %23, %57 ]
  ret i32 %.056
}